target datalayout = "e-m:e-p270:32:32-p271:32:32-p272:64:64-i64:64-i128:128-f80:128-n8:16:32:64-S128"
target triple = "x86_64-pc-linux-gnu"

%struct.AVFormatContext = type { ptr, ptr, ptr, ptr, ptr, i32, i32, ptr, i32, ptr, i32, ptr, ptr, i64, i64, i64, i32, i32, i32, i64, i64, ptr, i32, i32, ptr, i32, i32, i32, i32, ptr, i64, i32, i32, %struct.AVIOInterruptCB, i32, i32, i32, i32, i64, i32, i32, i32, i32, i32, i32, i32, i32, i32, i32, i32, i32, i64, i32, i32, i32, i32, i32, ptr, ptr, ptr, ptr, i32, ptr, ptr, ptr, ptr, i32, ptr, ptr, i64, ptr, ptr, ptr, i64 }
%struct.AVIOInterruptCB = type { ptr, ptr }
%struct.ogg = type { ptr, i32, i32, i32, i64, ptr }
%struct.ogg_stream = type { ptr, i32, i32, i32, i32, i32, i32, i32, i64, i64, i64, i64, i64, i64, i32, ptr, i32, i32, i32, [255 x i8], i32, i32, i32, i32, i32, i32, i32, i32, ptr, i64, ptr }
%struct.speex_params = type { i32, i32, i32 }

; Function Attrs: nounwind uwtable
define internal i32 @ogg_page_packets(ptr noundef %0) #0 {
  %2 = alloca ptr, align 8
  %3 = alloca i32, align 4
  %4 = alloca i32, align 4
  store ptr %0, ptr %2, align 8, !tbaa !33
  call void @llvm.lifetime.start.p0(i64 4, ptr %3) #4
  call void @llvm.lifetime.start.p0(i64 4, ptr %4) #4
  store i32 0, ptr %4, align 4, !tbaa !9
  store i32 0, ptr %3, align 4, !tbaa !9
  br label %5

5:                                                ; preds = %24, %1
  %6 = load i32, ptr %3, align 4, !tbaa !9
  %7 = load ptr, ptr %2, align 8, !tbaa !33
  %8 = getelementptr inbounds nuw %struct.ogg_stream, ptr %7, i32 0, i32 17
  %9 = load i32, ptr %8, align 4, !tbaa !70
  %10 = icmp slt i32 %6, %9
  br i1 %10, label %11, label %27

11:                                               ; preds = %5
  %12 = load ptr, ptr %2, align 8, !tbaa !33
  %13 = getelementptr inbounds nuw %struct.ogg_stream, ptr %12, i32 0, i32 19
  %14 = load i32, ptr %3, align 4, !tbaa !9
  %15 = sext i32 %14 to i64
  %16 = getelementptr inbounds [255 x i8], ptr %13, i64 0, i64 %15
  %17 = load i8, ptr %16, align 1, !tbaa !59
  %18 = zext i8 %17 to i32
  %19 = icmp slt i32 %18, 255
  br i1 %19, label %20, label %23

20:                                               ; preds = %11
  %21 = load i32, ptr %4, align 4, !tbaa !9
  %22 = add nsw i32 %21, 1
  store i32 %22, ptr %4, align 4, !tbaa !9
  br label %23

23:                                               ; preds = %20, %11
  br label %24

24:                                               ; preds = %23
  %25 = load i32, ptr %3, align 4, !tbaa !9
  %26 = add nsw i32 %25, 1
  store i32 %26, ptr %3, align 4, !tbaa !9
  br label %5, !llvm.loop !72

27:                                               ; preds = %5
  %28 = load i32, ptr %4, align 4, !tbaa !9
  call void @llvm.lifetime.end.p0(i64 4, ptr %4) #4
  call void @llvm.lifetime.end.p0(i64 4, ptr %3) #4
  ret i32 %28
}

; Function Attrs: nounwind uwtable
define internal i32 @speex_packet(ptr noundef %0, i32 noundef %1) #0 {
  %3 = alloca ptr, align 8
  %4 = alloca i32, align 4
  %5 = alloca ptr, align 8
  %6 = alloca ptr, align 8
  %7 = alloca ptr, align 8
  %8 = alloca i32, align 4
  store ptr %0, ptr %3, align 8, !tbaa !4
  store i32 %1, ptr %4, align 4, !tbaa !9
  call void @llvm.lifetime.start.p0(i64 8, ptr %5) #4
  %9 = load ptr, ptr %3, align 8, !tbaa !4
  %10 = getelementptr inbounds nuw %struct.AVFormatContext, ptr %9, i32 0, i32 3
  %11 = load ptr, ptr %10, align 8, !tbaa !11
  store ptr %11, ptr %5, align 8, !tbaa !27
  call void @llvm.lifetime.start.p0(i64 8, ptr %6) #4
  %12 = load ptr, ptr %5, align 8, !tbaa !27
  %13 = getelementptr inbounds nuw %struct.ogg, ptr %12, i32 0, i32 0
  %14 = load ptr, ptr %13, align 8, !tbaa !29
  %15 = load i32, ptr %4, align 4, !tbaa !9
  %16 = sext i32 %15 to i64
  %17 = getelementptr inbounds %struct.ogg_stream, ptr %14, i64 %16
  store ptr %17, ptr %6, align 8, !tbaa !33
  call void @llvm.lifetime.start.p0(i64 8, ptr %7) #4
  %18 = load ptr, ptr %6, align 8, !tbaa !33
  %19 = getelementptr inbounds nuw %struct.ogg_stream, ptr %18, i32 0, i32 30
  %20 = load ptr, ptr %19, align 8, !tbaa !34
  store ptr %20, ptr %7, align 8, !tbaa !37
  call void @llvm.lifetime.start.p0(i64 4, ptr %8) #4
  %21 = load ptr, ptr %7, align 8, !tbaa !37
  %22 = getelementptr inbounds nuw %struct.speex_params, ptr %21, i32 0, i32 0
  %23 = load i32, ptr %22, align 4, !tbaa !61
  store i32 %23, ptr %8, align 4, !tbaa !9
  %24 = load ptr, ptr %6, align 8, !tbaa !33
  %25 = getelementptr inbounds nuw %struct.ogg_stream, ptr %24, i32 0, i32 14
  %26 = load i32, ptr %25, align 8, !tbaa !64
  %27 = and i32 %26, 4
  %28 = icmp ne i32 %27, 0
  br i1 %28, label %29, label %57

29:                                               ; preds = %2
  %30 = load ptr, ptr %6, align 8, !tbaa !33
  %31 = getelementptr inbounds nuw %struct.ogg_stream, ptr %30, i32 0, i32 10
  %32 = load i64, ptr %31, align 8, !tbaa !65
  %33 = icmp ne i64 %32, -9223372036854775808
  br i1 %33, label %34, label %57

34:                                               ; preds = %29
  %35 = load ptr, ptr %6, align 8, !tbaa !33
  %36 = getelementptr inbounds nuw %struct.ogg_stream, ptr %35, i32 0, i32 8
  %37 = load i64, ptr %36, align 8, !tbaa !66
  %38 = icmp ugt i64 %37, 0
  br i1 %38, label %39, label %57

39:                                               ; preds = %34
  %40 = load ptr, ptr %6, align 8, !tbaa !33
  %41 = getelementptr inbounds nuw %struct.ogg_stream, ptr %40, i32 0, i32 8
  %42 = load i64, ptr %41, align 8, !tbaa !66
  %43 = load ptr, ptr %6, align 8, !tbaa !33
  %44 = getelementptr inbounds nuw %struct.ogg_stream, ptr %43, i32 0, i32 10
  %45 = load i64, ptr %44, align 8, !tbaa !65
  %46 = sub i64 %42, %45
  %47 = load i32, ptr %8, align 4, !tbaa !9
  %48 = load ptr, ptr %6, align 8, !tbaa !33
  %49 = call i32 @ogg_page_packets(ptr noundef %48)
  %50 = sub nsw i32 %49, 1
  %51 = mul nsw i32 %47, %50
  %52 = sext i32 %51 to i64
  %53 = sub i64 %46, %52
  %54 = trunc i64 %53 to i32
  %55 = load ptr, ptr %7, align 8, !tbaa !37
  %56 = getelementptr inbounds nuw %struct.speex_params, ptr %55, i32 0, i32 1
  store i32 %54, ptr %56, align 4, !tbaa !67
  br label %57

57:                                               ; preds = %39, %34, %29, %2
  %58 = load ptr, ptr %6, align 8, !tbaa !33
  %59 = getelementptr inbounds nuw %struct.ogg_stream, ptr %58, i32 0, i32 10
  %60 = load i64, ptr %59, align 8, !tbaa !65
  %61 = icmp ne i64 %60, 0
  br i1 %61, label %81, label %62

62:                                               ; preds = %57
  %63 = load ptr, ptr %6, align 8, !tbaa !33
  %64 = getelementptr inbounds nuw %struct.ogg_stream, ptr %63, i32 0, i32 8
  %65 = load i64, ptr %64, align 8, !tbaa !66
  %66 = icmp ugt i64 %65, 0
  br i1 %66, label %67, label %81

67:                                               ; preds = %62
  %68 = load ptr, ptr %6, align 8, !tbaa !33
  %69 = getelementptr inbounds nuw %struct.ogg_stream, ptr %68, i32 0, i32 8
  %70 = load i64, ptr %69, align 8, !tbaa !66
  %71 = load i32, ptr %8, align 4, !tbaa !9
  %72 = load ptr, ptr %6, align 8, !tbaa !33
  %73 = call i32 @ogg_page_packets(ptr noundef %72)
  %74 = mul nsw i32 %71, %73
  %75 = sext i32 %74 to i64
  %76 = sub i64 %70, %75
  %77 = load ptr, ptr %6, align 8, !tbaa !33
  %78 = getelementptr inbounds nuw %struct.ogg_stream, ptr %77, i32 0, i32 11
  store i64 %76, ptr %78, align 8, !tbaa !68
  %79 = load ptr, ptr %6, align 8, !tbaa !33
  %80 = getelementptr inbounds nuw %struct.ogg_stream, ptr %79, i32 0, i32 10
  store i64 %76, ptr %80, align 8, !tbaa !65
  br label %81

81:                                               ; preds = %67, %62, %57
  %82 = load ptr, ptr %6, align 8, !tbaa !33
  %83 = getelementptr inbounds nuw %struct.ogg_stream, ptr %82, i32 0, i32 14
  %84 = load i32, ptr %83, align 8, !tbaa !64
  %85 = and i32 %84, 4
  %86 = icmp ne i32 %85, 0
  br i1 %86, label %87, label %106

87:                                               ; preds = %81
  %88 = load ptr, ptr %6, align 8, !tbaa !33
  %89 = getelementptr inbounds nuw %struct.ogg_stream, ptr %88, i32 0, i32 18
  %90 = load i32, ptr %89, align 8, !tbaa !69
  %91 = load ptr, ptr %6, align 8, !tbaa !33
  %92 = getelementptr inbounds nuw %struct.ogg_stream, ptr %91, i32 0, i32 17
  %93 = load i32, ptr %92, align 4, !tbaa !70
  %94 = icmp eq i32 %90, %93
  br i1 %94, label %95, label %106

95:                                               ; preds = %87
  %96 = load ptr, ptr %7, align 8, !tbaa !37
  %97 = getelementptr inbounds nuw %struct.speex_params, ptr %96, i32 0, i32 1
  %98 = load i32, ptr %97, align 4, !tbaa !67
  %99 = icmp ne i32 %98, 0
  br i1 %99, label %100, label %106

100:                                              ; preds = %95
  %101 = load ptr, ptr %7, align 8, !tbaa !37
  %102 = getelementptr inbounds nuw %struct.speex_params, ptr %101, i32 0, i32 1
  %103 = load i32, ptr %102, align 4, !tbaa !67
  %104 = load ptr, ptr %6, align 8, !tbaa !33
  %105 = getelementptr inbounds nuw %struct.ogg_stream, ptr %104, i32 0, i32 6
  store i32 %103, ptr %105, align 4, !tbaa !71
  br label %110

106:                                              ; preds = %95, %87, %81
  %107 = load i32, ptr %8, align 4, !tbaa !9
  %108 = load ptr, ptr %6, align 8, !tbaa !33
  %109 = getelementptr inbounds nuw %struct.ogg_stream, ptr %108, i32 0, i32 6
  store i32 %107, ptr %109, align 4, !tbaa !71
  br label %110

110:                                              ; preds = %106, %100
  call void @llvm.lifetime.end.p0(i64 4, ptr %8) #4
  call void @llvm.lifetime.end.p0(i64 8, ptr %7) #4
  call void @llvm.lifetime.end.p0(i64 8, ptr %6) #4
  call void @llvm.lifetime.end.p0(i64 8, ptr %5) #4
  ret i32 0
}