; Function Attrs: nofree norecurse nosync nounwind memory(readwrite, inaccessiblemem: none) uwtable
define internal noundef i32 @speex_packet(ptr noundef readonly captures(none) %0, i32 noundef %1) #1 {
  %3 = getelementptr inbounds nuw i8, ptr %0, i64 24
  %4 = load ptr, ptr %3, align 8, !tbaa !4
  %5 = load ptr, ptr %4, align 8, !tbaa !24
  %6 = sext i32 %1 to i64
  %7 = getelementptr inbounds %struct.ogg_stream, ptr %5, i64 %6
  %8 = getelementptr inbounds nuw i8, ptr %7, i64 424
  %9 = load ptr, ptr %8, align 8, !tbaa !28
  %10 = load i32, ptr %9, align 4, !tbaa !52
  %11 = getelementptr inbounds nuw i8, ptr %7, i64 88
  %12 = load i32, ptr %11, align 8, !tbaa !55
  %13 = and i32 %12, 4
  %.not = icmp eq i32 %13, 0
  %.phi.trans.insert = getelementptr inbounds nuw i8, ptr %7, i64 56
  %.pre = load i64, ptr %.phi.trans.insert, align 8, !tbaa !56
  br i1 %.not, label %._crit_edge, label %14

14:                                               ; preds = %2
  %.not30 = icmp eq i64 %.pre, -9223372036854775808
  br i1 %.not30, label %.thread49, label %15

15:                                               ; preds = %14
  %16 = getelementptr inbounds nuw i8, ptr %7, i64 40
  %17 = load i64, ptr %16, align 8, !tbaa !57
  %.not31 = icmp eq i64 %17, 0
  br i1 %.not31, label %._crit_edge, label %18

18:                                               ; preds = %15
  %19 = getelementptr inbounds nuw i8, ptr %7, i64 108
  %20 = load i32, ptr %19, align 4, !tbaa !58
  %21 = icmp sgt i32 %20, 0
  br i1 %21, label %.lr.ph.i, label %ogg_page_packets.exit

.lr.ph.i:                                         ; preds = %18
  %22 = getelementptr inbounds nuw i8, ptr %7, i64 116
  %wide.trip.count.i = zext nneg i32 %20 to i64
  br label %23

23:                                               ; preds = %23, %.lr.ph.i
  %indvars.iv.i = phi i64 [ 0, %.lr.ph.i ], [ %indvars.iv.next.i, %23 ]
  %.08.i = phi i32 [ 0, %.lr.ph.i ], [ %spec.select.i, %23 ]
  %24 = getelementptr inbounds nuw [255 x i8], ptr %22, i64 0, i64 %indvars.iv.i
  %25 = load i8, ptr %24, align 1, !tbaa !50
  %.not.i = icmp ne i8 %25, -1
  %26 = zext i1 %.not.i to i32
  %spec.select.i = add nuw nsw i32 %.08.i, %26
  %indvars.iv.next.i = add nuw nsw i64 %indvars.iv.i, 1
  %exitcond.not.i = icmp eq i64 %indvars.iv.next.i, %wide.trip.count.i
  br i1 %exitcond.not.i, label %ogg_page_packets.exit.loopexit, label %23, !llvm.loop !59

ogg_page_packets.exit.loopexit:                   ; preds = %23
  %27 = add nsw i32 %spec.select.i, -1
  br label %ogg_page_packets.exit

ogg_page_packets.exit:                            ; preds = %ogg_page_packets.exit.loopexit, %18
  %.0.lcssa.i = phi i32 [ -1, %18 ], [ %27, %ogg_page_packets.exit.loopexit ]
  %28 = mul nsw i32 %.0.lcssa.i, %10
  %29 = zext i32 %28 to i64
  %30 = add i64 %.pre, %29
  %31 = sub i64 %17, %30
  %32 = trunc i64 %31 to i32
  %33 = getelementptr inbounds nuw i8, ptr %9, i64 4
  store i32 %32, ptr %33, align 4, !tbaa !61
  br label %._crit_edge

._crit_edge:                                      ; preds = %2, %ogg_page_packets.exit, %15
  %34 = getelementptr inbounds nuw i8, ptr %7, i64 56
  %.not32 = icmp eq i64 %.pre, 0
  br i1 %.not32, label %35, label %51

35:                                               ; preds = %._crit_edge
  %36 = getelementptr inbounds nuw i8, ptr %7, i64 40
  %37 = load i64, ptr %36, align 8, !tbaa !57
  %.not33 = icmp eq i64 %37, 0
  br i1 %.not33, label %51, label %38

38:                                               ; preds = %35
  %39 = getelementptr inbounds nuw i8, ptr %7, i64 108
  %40 = load i32, ptr %39, align 4, !tbaa !58
  %41 = icmp sgt i32 %40, 0
  br i1 %41, label %.lr.ph.i37, label %ogg_page_packets.exit45

.lr.ph.i37:                                       ; preds = %38
  %42 = getelementptr inbounds nuw i8, ptr %7, i64 116
  %wide.trip.count.i38 = zext nneg i32 %40 to i64
  br label %43

43:                                               ; preds = %43, %.lr.ph.i37
  %indvars.iv.i39 = phi i64 [ 0, %.lr.ph.i37 ], [ %indvars.iv.next.i43, %43 ]
  %.08.i40 = phi i32 [ 0, %.lr.ph.i37 ], [ %spec.select.i42, %43 ]
  %44 = getelementptr inbounds nuw [255 x i8], ptr %42, i64 0, i64 %indvars.iv.i39
  %45 = load i8, ptr %44, align 1, !tbaa !50
  %.not.i41 = icmp ne i8 %45, -1
  %46 = zext i1 %.not.i41 to i32
  %spec.select.i42 = add nuw nsw i32 %.08.i40, %46
  %indvars.iv.next.i43 = add nuw nsw i64 %indvars.iv.i39, 1
  %exitcond.not.i44 = icmp eq i64 %indvars.iv.next.i43, %wide.trip.count.i38
  br i1 %exitcond.not.i44, label %ogg_page_packets.exit45, label %43, !llvm.loop !59

ogg_page_packets.exit45:                          ; preds = %43, %38
  %.0.lcssa.i36 = phi i32 [ 0, %38 ], [ %spec.select.i42, %43 ]
  %47 = mul nsw i32 %.0.lcssa.i36, %10
  %48 = sext i32 %47 to i64
  %49 = sub i64 %37, %48
  %50 = getelementptr inbounds nuw i8, ptr %7, i64 64
  store i64 %49, ptr %50, align 8, !tbaa !62
  store i64 %49, ptr %34, align 8, !tbaa !56
  br label %51

51:                                               ; preds = %ogg_page_packets.exit45, %35, %._crit_edge
  br i1 %.not, label %60, label %.thread49

.thread49:                                        ; preds = %14, %51
  %52 = getelementptr inbounds nuw i8, ptr %7, i64 112
  %53 = load i32, ptr %52, align 8, !tbaa !63
  %54 = getelementptr inbounds nuw i8, ptr %7, i64 108
  %55 = load i32, ptr %54, align 4, !tbaa !58
  %56 = icmp eq i32 %53, %55
  br i1 %56, label %57, label %60

57:                                               ; preds = %.thread49
  %58 = getelementptr inbounds nuw i8, ptr %9, i64 4
  %59 = load i32, ptr %58, align 4, !tbaa !61
  %.not35 = icmp eq i32 %59, 0
  br i1 %.not35, label %60, label %61

60:                                               ; preds = %57, %.thread49, %51
  br label %61

61:                                               ; preds = %57, %60
  %.sink = phi i32 [ %10, %60 ], [ %59, %57 ]
  %62 = getelementptr inbounds nuw i8, ptr %7, i64 28
  store i32 %.sink, ptr %62, align 4, !tbaa !64
  ret i32 0
}